target datalayout = "e-m:e-p270:32:32-p271:32:32-p272:64:64-i64:64-i128:128-f80:128-n8:16:32:64-S128"
target triple = "x86_64-pc-linux-gnu"

%struct.jpeg_compress_struct = type { ptr, ptr, ptr, ptr, i32, i32, ptr, i32, i32, i32, i32, double, i32, i32, i32, ptr, [4 x ptr], [4 x ptr], [4 x ptr], [16 x i8], [16 x i8], [16 x i8], i32, ptr, i32, i32, i32, i32, i32, i32, i32, i32, i32, i8, i8, i8, i16, i16, i32, i32, i32, i32, i32, i32, i32, [4 x ptr], i32, i32, i32, [10 x i32], i32, i32, i32, i32, ptr, ptr, ptr, ptr, ptr, ptr, ptr, ptr, ptr, ptr, i32 }
%struct.jpeg_error_mgr = type { ptr, ptr, ptr, ptr, ptr, i32, %union.anon, i32, i64, ptr, i32, ptr, i32, i32 }
%union.anon = type { [8 x i32], [48 x i8] }
%struct._tga_source_struct = type { %struct.cjpeg_source_struct, ptr, ptr, ptr, i32, ptr, [4 x i8], i32, i32, i32, i32, ptr }
%struct.cjpeg_source_struct = type { ptr, ptr, ptr, ptr, ptr, ptr, ptr, i32, i32 }

; Function Attrs: nounwind uwtable
define internal i32 @get_8bit_row(ptr noundef %0, ptr noundef %1) #0 {
  %3 = alloca ptr, align 8
  %4 = alloca ptr, align 8
  %5 = alloca ptr, align 8
  %6 = alloca i32, align 4
  %7 = alloca ptr, align 8
  %8 = alloca i32, align 4
  %9 = alloca ptr, align 8
  %10 = alloca i32, align 4
  store ptr %0, ptr %3, align 8
  store ptr %1, ptr %4, align 8
  %11 = load ptr, ptr %4, align 8
  store ptr %11, ptr %5, align 8
  %12 = load ptr, ptr %5, align 8
  %13 = getelementptr inbounds %struct._tga_source_struct, ptr %12, i32 0, i32 2
  %14 = load ptr, ptr %13, align 8
  store ptr %14, ptr %9, align 8
  %15 = load ptr, ptr %5, align 8
  %16 = getelementptr inbounds %struct._tga_source_struct, ptr %15, i32 0, i32 8
  %17 = load i32, ptr %16, align 8
  store i32 %17, ptr %10, align 4
  %18 = load ptr, ptr %5, align 8
  %19 = getelementptr inbounds %struct._tga_source_struct, ptr %18, i32 0, i32 0
  %20 = getelementptr inbounds %struct.cjpeg_source_struct, ptr %19, i32 0, i32 4
  %21 = load ptr, ptr %20, align 8
  %22 = getelementptr inbounds ptr, ptr %21, i64 0
  %23 = load ptr, ptr %22, align 8
  store ptr %23, ptr %7, align 8
  %24 = load ptr, ptr %3, align 8
  %25 = getelementptr inbounds %struct.jpeg_compress_struct, ptr %24, i32 0, i32 7
  %26 = load i32, ptr %25, align 8
  store i32 %26, ptr %8, align 4
  br label %27

27:                                               ; preds = %82, %2
  %28 = load i32, ptr %8, align 4
  %29 = icmp ugt i32 %28, 0
  br i1 %29, label %30, label %85

30:                                               ; preds = %27
  %31 = load ptr, ptr %5, align 8
  %32 = getelementptr inbounds %struct._tga_source_struct, ptr %31, i32 0, i32 5
  %33 = load ptr, ptr %32, align 8
  %34 = load ptr, ptr %5, align 8
  call void %33(ptr noundef %34)
  %35 = load ptr, ptr %5, align 8
  %36 = getelementptr inbounds %struct._tga_source_struct, ptr %35, i32 0, i32 6
  %37 = getelementptr inbounds [4 x i8], ptr %36, i64 0, i64 0
  %38 = load i8, ptr %37, align 8
  %39 = zext i8 %38 to i32
  store i32 %39, ptr %6, align 4
  %40 = load i32, ptr %6, align 4
  %41 = load i32, ptr %10, align 4
  %42 = icmp sge i32 %40, %41
  br i1 %42, label %43, label %54

43:                                               ; preds = %30
  %44 = load ptr, ptr %3, align 8
  %45 = getelementptr inbounds %struct.jpeg_compress_struct, ptr %44, i32 0, i32 0
  %46 = load ptr, ptr %45, align 8
  %47 = getelementptr inbounds %struct.jpeg_error_mgr, ptr %46, i32 0, i32 5
  store i32 1037, ptr %47, align 8
  %48 = load ptr, ptr %3, align 8
  %49 = getelementptr inbounds %struct.jpeg_compress_struct, ptr %48, i32 0, i32 0
  %50 = load ptr, ptr %49, align 8
  %51 = getelementptr inbounds %struct.jpeg_error_mgr, ptr %50, i32 0, i32 0
  %52 = load ptr, ptr %51, align 8
  %53 = load ptr, ptr %3, align 8
  call void %52(ptr noundef %53)
  br label %54

54:                                               ; preds = %43, %30
  %55 = load ptr, ptr %9, align 8
  %56 = getelementptr inbounds ptr, ptr %55, i64 0
  %57 = load ptr, ptr %56, align 8
  %58 = load i32, ptr %6, align 4
  %59 = sext i32 %58 to i64
  %60 = getelementptr inbounds i8, ptr %57, i64 %59
  %61 = load i8, ptr %60, align 1
  %62 = load ptr, ptr %7, align 8
  %63 = getelementptr inbounds i8, ptr %62, i32 1
  store ptr %63, ptr %7, align 8
  store i8 %61, ptr %62, align 1
  %64 = load ptr, ptr %9, align 8
  %65 = getelementptr inbounds ptr, ptr %64, i64 1
  %66 = load ptr, ptr %65, align 8
  %67 = load i32, ptr %6, align 4
  %68 = sext i32 %67 to i64
  %69 = getelementptr inbounds i8, ptr %66, i64 %68
  %70 = load i8, ptr %69, align 1
  %71 = load ptr, ptr %7, align 8
  %72 = getelementptr inbounds i8, ptr %71, i32 1
  store ptr %72, ptr %7, align 8
  store i8 %70, ptr %71, align 1
  %73 = load ptr, ptr %9, align 8
  %74 = getelementptr inbounds ptr, ptr %73, i64 2
  %75 = load ptr, ptr %74, align 8
  %76 = load i32, ptr %6, align 4
  %77 = sext i32 %76 to i64
  %78 = getelementptr inbounds i8, ptr %75, i64 %77
  %79 = load i8, ptr %78, align 1
  %80 = load ptr, ptr %7, align 8
  %81 = getelementptr inbounds i8, ptr %80, i32 1
  store ptr %81, ptr %7, align 8
  store i8 %79, ptr %80, align 1
  br label %82

82:                                               ; preds = %54
  %83 = load i32, ptr %8, align 4
  %84 = add i32 %83, -1
  store i32 %84, ptr %8, align 4
  br label %27, !llvm.loop !9

85:                                               ; preds = %27
  ret i32 1
}