; Function Attrs: nounwind uwtable
define internal noundef i32 @get_8bit_row(ptr noundef %0, ptr noundef %1) #0 {
  %3 = getelementptr inbounds i8, ptr %1, i64 72
  %4 = load ptr, ptr %3, align 8
  %5 = getelementptr inbounds i8, ptr %1, i64 112
  %6 = load i32, ptr %5, align 8
  %7 = getelementptr inbounds i8, ptr %0, i64 48
  %8 = load i32, ptr %7, align 8
  %.not25 = icmp eq i32 %8, 0
  br i1 %.not25, label %._crit_edge, label %.lr.ph

.lr.ph:                                           ; preds = %2
  %9 = getelementptr inbounds i8, ptr %1, i64 32
  %10 = load ptr, ptr %9, align 8
  %11 = load ptr, ptr %10, align 8
  %12 = getelementptr inbounds i8, ptr %1, i64 96
  %13 = getelementptr inbounds i8, ptr %1, i64 104
  %14 = getelementptr inbounds i8, ptr %4, i64 8
  %15 = getelementptr inbounds i8, ptr %4, i64 16
  br label %16

16:                                               ; preds = %.lr.ph, %25
  %.027 = phi ptr [ %11, %.lr.ph ], [ %38, %25 ]
  %.02326 = phi i32 [ %8, %.lr.ph ], [ %39, %25 ]
  %17 = load ptr, ptr %12, align 8
  tail call void %17(ptr noundef nonnull %1) #3
  %18 = load i8, ptr %13, align 8
  %19 = zext i8 %18 to i32
  %.not24 = icmp sgt i32 %6, %19
  br i1 %.not24, label %25, label %20

20:                                               ; preds = %16
  %21 = load ptr, ptr %0, align 8
  %22 = getelementptr inbounds i8, ptr %21, i64 40
  store i32 1037, ptr %22, align 8
  %23 = load ptr, ptr %0, align 8
  %24 = load ptr, ptr %23, align 8
  tail call void %24(ptr noundef nonnull %0) #3
  br label %25

25:                                               ; preds = %20, %16
  %26 = load ptr, ptr %4, align 8
  %27 = zext i8 %18 to i64
  %28 = getelementptr inbounds i8, ptr %26, i64 %27
  %29 = load i8, ptr %28, align 1
  %30 = getelementptr inbounds i8, ptr %.027, i64 1
  store i8 %29, ptr %.027, align 1
  %31 = load ptr, ptr %14, align 8
  %32 = getelementptr inbounds i8, ptr %31, i64 %27
  %33 = load i8, ptr %32, align 1
  %34 = getelementptr inbounds i8, ptr %.027, i64 2
  store i8 %33, ptr %30, align 1
  %35 = load ptr, ptr %15, align 8
  %36 = getelementptr inbounds i8, ptr %35, i64 %27
  %37 = load i8, ptr %36, align 1
  %38 = getelementptr inbounds i8, ptr %.027, i64 3
  store i8 %37, ptr %34, align 1
  %39 = add i32 %.02326, -1
  %.not = icmp eq i32 %39, 0
  br i1 %.not, label %._crit_edge, label %16, !llvm.loop !10

._crit_edge:                                      ; preds = %25, %2
  ret i32 1
}